target datalayout = "e-m:e-p270:32:32-p271:32:32-p272:64:64-i64:64-i128:128-f80:128-n8:16:32:64-S128"
target triple = "x86_64-pc-linux-gnu"

%struct.evp_md_ctx_st = type { ptr, ptr, ptr, i64, ptr, ptr, ptr, ptr, ptr }
%struct.evp_md_st = type { i32, i32, i32, i64, i32, ptr, ptr, ptr, ptr, ptr, i32, i32, ptr, i32, ptr, ptr, ptr, %struct.CRYPTO_REF_COUNT, ptr, ptr, ptr, ptr, ptr, ptr, ptr, ptr, ptr, ptr, ptr, ptr, ptr, ptr, ptr }
%struct.CRYPTO_REF_COUNT = type { i32 }
%struct.evp_pkey_ctx_st = type { i32, ptr, ptr, ptr, ptr, %union.anon, %struct.anon.4, ptr, ptr, ptr, i32, i32, ptr, ptr, ptr, ptr, ptr, i8, ptr }
%union.anon = type { %struct.anon.0 }
%struct.anon.0 = type { ptr, ptr }
%struct.anon.4 = type { ptr, ptr, i64, i8 }
%struct.anon.1 = type { ptr, ptr }
%struct.ossl_param_st = type { ptr, i32, ptr, i64, i64 }
%struct.evp_signature_st = type { i32, ptr, ptr, ptr, %struct.CRYPTO_REF_COUNT, ptr, ptr, ptr, ptr, ptr, ptr, ptr, ptr, ptr, ptr, ptr, ptr, ptr, ptr, ptr, ptr, ptr, ptr, ptr, ptr, ptr, ptr, ptr, ptr, ptr, ptr, ptr, ptr, ptr, ptr, ptr, ptr }

@.str = private unnamed_addr constant [31 x i8] c"../openssl/crypto/evp/digest.c\00", align 1
@.str.2 = private unnamed_addr constant [7 x i8] c"xoflen\00", align 1
@__func__.EVP_MD_CTX_ctrl = private unnamed_addr constant [16 x i8] c"EVP_MD_CTX_ctrl\00", align 1
@.str.3 = private unnamed_addr constant [7 x i8] c"micalg\00", align 1
@.str.4 = private unnamed_addr constant [8 x i8] c"ssl3-ms\00", align 1

; Function Attrs: nounwind uwtable
define i32 @EVP_MD_CTX_get_params(ptr noundef %0, ptr noundef %1) #0 {
  %3 = alloca i32, align 4
  %4 = alloca ptr, align 8
  %5 = alloca ptr, align 8
  %6 = alloca ptr, align 8
  %7 = alloca i32, align 4
  store ptr %0, ptr %4, align 8, !tbaa !3
  store ptr %1, ptr %5, align 8, !tbaa !42
  call void @llvm.lifetime.start.p0(i64 8, ptr %6) #8
  %8 = load ptr, ptr %4, align 8, !tbaa !3
  %9 = getelementptr inbounds nuw %struct.evp_md_ctx_st, ptr %8, i32 0, i32 5
  %10 = load ptr, ptr %9, align 8, !tbaa !30
  store ptr %10, ptr %6, align 8, !tbaa !38
  %11 = load ptr, ptr %6, align 8, !tbaa !38
  %12 = icmp ne ptr %11, null
  br i1 %12, label %13, label %50

13:                                               ; preds = %2
  %14 = load ptr, ptr %6, align 8, !tbaa !38
  %15 = getelementptr inbounds nuw %struct.evp_pkey_ctx_st, ptr %14, i32 0, i32 0
  %16 = load i32, ptr %15, align 8, !tbaa !45
  %17 = icmp eq i32 %16, 256
  br i1 %17, label %23, label %18

18:                                               ; preds = %13
  %19 = load ptr, ptr %6, align 8, !tbaa !38
  %20 = getelementptr inbounds nuw %struct.evp_pkey_ctx_st, ptr %19, i32 0, i32 0
  %21 = load i32, ptr %20, align 8, !tbaa !45
  %22 = icmp eq i32 %21, 128
  br i1 %22, label %23, label %50

23:                                               ; preds = %18, %13
  %24 = load ptr, ptr %6, align 8, !tbaa !38
  %25 = getelementptr inbounds nuw %struct.evp_pkey_ctx_st, ptr %24, i32 0, i32 5
  %26 = getelementptr inbounds nuw %struct.anon.1, ptr %25, i32 0, i32 1
  %27 = load ptr, ptr %26, align 8, !tbaa !52
  %28 = icmp ne ptr %27, null
  br i1 %28, label %29, label %50

29:                                               ; preds = %23
  %30 = load ptr, ptr %6, align 8, !tbaa !38
  %31 = getelementptr inbounds nuw %struct.evp_pkey_ctx_st, ptr %30, i32 0, i32 5
  %32 = getelementptr inbounds nuw %struct.anon.1, ptr %31, i32 0, i32 0
  %33 = load ptr, ptr %32, align 8, !tbaa !52
  %34 = getelementptr inbounds nuw %struct.evp_signature_st, ptr %33, i32 0, i32 32
  %35 = load ptr, ptr %34, align 8, !tbaa !83
  %36 = icmp ne ptr %35, null
  br i1 %36, label %37, label %50

37:                                               ; preds = %29
  %38 = load ptr, ptr %6, align 8, !tbaa !38
  %39 = getelementptr inbounds nuw %struct.evp_pkey_ctx_st, ptr %38, i32 0, i32 5
  %40 = getelementptr inbounds nuw %struct.anon.1, ptr %39, i32 0, i32 0
  %41 = load ptr, ptr %40, align 8, !tbaa !52
  %42 = getelementptr inbounds nuw %struct.evp_signature_st, ptr %41, i32 0, i32 32
  %43 = load ptr, ptr %42, align 8, !tbaa !83
  %44 = load ptr, ptr %6, align 8, !tbaa !38
  %45 = getelementptr inbounds nuw %struct.evp_pkey_ctx_st, ptr %44, i32 0, i32 5
  %46 = getelementptr inbounds nuw %struct.anon.1, ptr %45, i32 0, i32 1
  %47 = load ptr, ptr %46, align 8, !tbaa !52
  %48 = load ptr, ptr %5, align 8, !tbaa !42
  %49 = call i32 %43(ptr noundef %47, ptr noundef %48)
  store i32 %49, ptr %3, align 4
  store i32 1, ptr %7, align 4
  br label %74

50:                                               ; preds = %29, %23, %18, %2
  %51 = load ptr, ptr %4, align 8, !tbaa !3
  %52 = getelementptr inbounds nuw %struct.evp_md_ctx_st, ptr %51, i32 0, i32 1
  %53 = load ptr, ptr %52, align 8, !tbaa !16
  %54 = icmp ne ptr %53, null
  br i1 %54, label %55, label %73

55:                                               ; preds = %50
  %56 = load ptr, ptr %4, align 8, !tbaa !3
  %57 = getelementptr inbounds nuw %struct.evp_md_ctx_st, ptr %56, i32 0, i32 1
  %58 = load ptr, ptr %57, align 8, !tbaa !16
  %59 = getelementptr inbounds nuw %struct.evp_md_st, ptr %58, i32 0, i32 29
  %60 = load ptr, ptr %59, align 8, !tbaa !84
  %61 = icmp ne ptr %60, null
  br i1 %61, label %62, label %73

62:                                               ; preds = %55
  %63 = load ptr, ptr %4, align 8, !tbaa !3
  %64 = getelementptr inbounds nuw %struct.evp_md_ctx_st, ptr %63, i32 0, i32 1
  %65 = load ptr, ptr %64, align 8, !tbaa !16
  %66 = getelementptr inbounds nuw %struct.evp_md_st, ptr %65, i32 0, i32 29
  %67 = load ptr, ptr %66, align 8, !tbaa !84
  %68 = load ptr, ptr %4, align 8, !tbaa !3
  %69 = getelementptr inbounds nuw %struct.evp_md_ctx_st, ptr %68, i32 0, i32 7
  %70 = load ptr, ptr %69, align 8, !tbaa !10
  %71 = load ptr, ptr %5, align 8, !tbaa !42
  %72 = call i32 %67(ptr noundef %70, ptr noundef %71)
  store i32 %72, ptr %3, align 4
  store i32 1, ptr %7, align 4
  br label %74

73:                                               ; preds = %55, %50
  store i32 0, ptr %3, align 4
  store i32 1, ptr %7, align 4
  br label %74

74:                                               ; preds = %73, %62, %37
  call void @llvm.lifetime.end.p0(i64 8, ptr %6) #8
  %75 = load i32, ptr %3, align 4
  ret i32 %75
}

; Function Attrs: nounwind uwtable
define i32 @EVP_MD_CTX_set_params(ptr noundef %0, ptr noundef %1) #0 {
  %3 = alloca i32, align 4
  %4 = alloca ptr, align 8
  %5 = alloca ptr, align 8
  %6 = alloca ptr, align 8
  %7 = alloca i32, align 4
  store ptr %0, ptr %4, align 8, !tbaa !3
  store ptr %1, ptr %5, align 8, !tbaa !42
  call void @llvm.lifetime.start.p0(i64 8, ptr %6) #8
  %8 = load ptr, ptr %4, align 8, !tbaa !3
  %9 = getelementptr inbounds nuw %struct.evp_md_ctx_st, ptr %8, i32 0, i32 5
  %10 = load ptr, ptr %9, align 8, !tbaa !30
  store ptr %10, ptr %6, align 8, !tbaa !38
  %11 = load ptr, ptr %6, align 8, !tbaa !38
  %12 = icmp ne ptr %11, null
  br i1 %12, label %13, label %50

13:                                               ; preds = %2
  %14 = load ptr, ptr %6, align 8, !tbaa !38
  %15 = getelementptr inbounds nuw %struct.evp_pkey_ctx_st, ptr %14, i32 0, i32 0
  %16 = load i32, ptr %15, align 8, !tbaa !45
  %17 = icmp eq i32 %16, 256
  br i1 %17, label %23, label %18

18:                                               ; preds = %13
  %19 = load ptr, ptr %6, align 8, !tbaa !38
  %20 = getelementptr inbounds nuw %struct.evp_pkey_ctx_st, ptr %19, i32 0, i32 0
  %21 = load i32, ptr %20, align 8, !tbaa !45
  %22 = icmp eq i32 %21, 128
  br i1 %22, label %23, label %50

23:                                               ; preds = %18, %13
  %24 = load ptr, ptr %6, align 8, !tbaa !38
  %25 = getelementptr inbounds nuw %struct.evp_pkey_ctx_st, ptr %24, i32 0, i32 5
  %26 = getelementptr inbounds nuw %struct.anon.1, ptr %25, i32 0, i32 1
  %27 = load ptr, ptr %26, align 8, !tbaa !52
  %28 = icmp ne ptr %27, null
  br i1 %28, label %29, label %50

29:                                               ; preds = %23
  %30 = load ptr, ptr %6, align 8, !tbaa !38
  %31 = getelementptr inbounds nuw %struct.evp_pkey_ctx_st, ptr %30, i32 0, i32 5
  %32 = getelementptr inbounds nuw %struct.anon.1, ptr %31, i32 0, i32 0
  %33 = load ptr, ptr %32, align 8, !tbaa !52
  %34 = getelementptr inbounds nuw %struct.evp_signature_st, ptr %33, i32 0, i32 34
  %35 = load ptr, ptr %34, align 8, !tbaa !69
  %36 = icmp ne ptr %35, null
  br i1 %36, label %37, label %50

37:                                               ; preds = %29
  %38 = load ptr, ptr %6, align 8, !tbaa !38
  %39 = getelementptr inbounds nuw %struct.evp_pkey_ctx_st, ptr %38, i32 0, i32 5
  %40 = getelementptr inbounds nuw %struct.anon.1, ptr %39, i32 0, i32 0
  %41 = load ptr, ptr %40, align 8, !tbaa !52
  %42 = getelementptr inbounds nuw %struct.evp_signature_st, ptr %41, i32 0, i32 34
  %43 = load ptr, ptr %42, align 8, !tbaa !69
  %44 = load ptr, ptr %6, align 8, !tbaa !38
  %45 = getelementptr inbounds nuw %struct.evp_pkey_ctx_st, ptr %44, i32 0, i32 5
  %46 = getelementptr inbounds nuw %struct.anon.1, ptr %45, i32 0, i32 1
  %47 = load ptr, ptr %46, align 8, !tbaa !52
  %48 = load ptr, ptr %5, align 8, !tbaa !42
  %49 = call i32 %43(ptr noundef %47, ptr noundef %48)
  store i32 %49, ptr %3, align 4
  store i32 1, ptr %7, align 4
  br label %74

50:                                               ; preds = %29, %23, %18, %2
  %51 = load ptr, ptr %4, align 8, !tbaa !3
  %52 = getelementptr inbounds nuw %struct.evp_md_ctx_st, ptr %51, i32 0, i32 1
  %53 = load ptr, ptr %52, align 8, !tbaa !16
  %54 = icmp ne ptr %53, null
  br i1 %54, label %55, label %73

55:                                               ; preds = %50
  %56 = load ptr, ptr %4, align 8, !tbaa !3
  %57 = getelementptr inbounds nuw %struct.evp_md_ctx_st, ptr %56, i32 0, i32 1
  %58 = load ptr, ptr %57, align 8, !tbaa !16
  %59 = getelementptr inbounds nuw %struct.evp_md_st, ptr %58, i32 0, i32 28
  %60 = load ptr, ptr %59, align 8, !tbaa !71
  %61 = icmp ne ptr %60, null
  br i1 %61, label %62, label %73

62:                                               ; preds = %55
  %63 = load ptr, ptr %4, align 8, !tbaa !3
  %64 = getelementptr inbounds nuw %struct.evp_md_ctx_st, ptr %63, i32 0, i32 1
  %65 = load ptr, ptr %64, align 8, !tbaa !16
  %66 = getelementptr inbounds nuw %struct.evp_md_st, ptr %65, i32 0, i32 28
  %67 = load ptr, ptr %66, align 8, !tbaa !71
  %68 = load ptr, ptr %4, align 8, !tbaa !3
  %69 = getelementptr inbounds nuw %struct.evp_md_ctx_st, ptr %68, i32 0, i32 7
  %70 = load ptr, ptr %69, align 8, !tbaa !10
  %71 = load ptr, ptr %5, align 8, !tbaa !42
  %72 = call i32 %67(ptr noundef %70, ptr noundef %71)
  store i32 %72, ptr %3, align 4
  store i32 1, ptr %7, align 4
  br label %74

73:                                               ; preds = %55, %50
  store i32 0, ptr %3, align 4
  store i32 1, ptr %7, align 4
  br label %74

74:                                               ; preds = %73, %62, %37
  call void @llvm.lifetime.end.p0(i64 8, ptr %6) #8
  %75 = load i32, ptr %3, align 4
  ret i32 %75
}

; Function Attrs: nounwind uwtable
define i32 @EVP_MD_CTX_ctrl(ptr noundef %0, i32 noundef %1, i32 noundef %2, ptr noundef %3) #0 {
  %5 = alloca i32, align 4
  %6 = alloca ptr, align 8
  %7 = alloca i32, align 4
  %8 = alloca i32, align 4
  %9 = alloca ptr, align 8
  %10 = alloca i32, align 4
  %11 = alloca i32, align 4
  %12 = alloca i64, align 8
  %13 = alloca [2 x %struct.ossl_param_st], align 16
  %14 = alloca i32, align 4
  %15 = alloca %struct.ossl_param_st, align 8
  %16 = alloca %struct.ossl_param_st, align 8
  %17 = alloca %struct.ossl_param_st, align 8
  store ptr %0, ptr %6, align 8, !tbaa !3
  store i32 %1, ptr %7, align 4, !tbaa !8
  store i32 %2, ptr %8, align 4, !tbaa !8
  store ptr %3, ptr %9, align 8, !tbaa !61
  call void @llvm.lifetime.start.p0(i64 4, ptr %10) #8
  store i32 -1, ptr %10, align 4, !tbaa !8
  call void @llvm.lifetime.start.p0(i64 4, ptr %11) #8
  store i32 1, ptr %11, align 4, !tbaa !8
  call void @llvm.lifetime.start.p0(i64 8, ptr %12) #8
  call void @llvm.lifetime.start.p0(i64 80, ptr %13) #8
  call void @llvm.memset.p0.i64(ptr align 16 %13, i8 0, i64 80, i1 false)
  %18 = load ptr, ptr %6, align 8, !tbaa !3
  %19 = icmp eq ptr %18, null
  br i1 %19, label %20, label %21

20:                                               ; preds = %4
  call void @ERR_new()
  call void @ERR_set_debug(ptr noundef @.str, i32 noundef 894, ptr noundef @__func__.EVP_MD_CTX_ctrl)
  call void (i32, i32, ptr, ...) @ERR_set_error(i32 noundef 6, i32 noundef 786690, ptr noundef null)
  store i32 0, ptr %5, align 4
  store i32 1, ptr %14, align 4
  br label %94

21:                                               ; preds = %4
  %22 = load ptr, ptr %6, align 8, !tbaa !3
  %23 = getelementptr inbounds nuw %struct.evp_md_ctx_st, ptr %22, i32 0, i32 1
  %24 = load ptr, ptr %23, align 8, !tbaa !16
  %25 = icmp ne ptr %24, null
  br i1 %25, label %26, label %34

26:                                               ; preds = %21
  %27 = load ptr, ptr %6, align 8, !tbaa !3
  %28 = getelementptr inbounds nuw %struct.evp_md_ctx_st, ptr %27, i32 0, i32 1
  %29 = load ptr, ptr %28, align 8, !tbaa !16
  %30 = getelementptr inbounds nuw %struct.evp_md_st, ptr %29, i32 0, i32 16
  %31 = load ptr, ptr %30, align 8, !tbaa !55
  %32 = icmp eq ptr %31, null
  br i1 %32, label %33, label %34

33:                                               ; preds = %26
  br label %69

34:                                               ; preds = %26, %21
  %35 = load i32, ptr %7, align 4, !tbaa !8
  switch i32 %35, label %56 [
    i32 3, label %36
    i32 2, label %40
    i32 29, label %51
  ]

36:                                               ; preds = %34
  %37 = load i32, ptr %8, align 4, !tbaa !8
  %38 = sext i32 %37 to i64
  store i64 %38, ptr %12, align 8, !tbaa !62
  %39 = getelementptr inbounds [2 x %struct.ossl_param_st], ptr %13, i64 0, i64 0
  call void @llvm.lifetime.start.p0(i64 40, ptr %15) #8
  call void @OSSL_PARAM_construct_size_t(ptr dead_on_unwind writable sret(%struct.ossl_param_st) align 8 %15, ptr noundef @.str.2, ptr noundef %12)
  call void @llvm.memcpy.p0.p0.i64(ptr align 16 %39, ptr align 8 %15, i64 40, i1 false), !tbaa.struct !67
  call void @llvm.lifetime.end.p0(i64 40, ptr %15) #8
  br label %57

40:                                               ; preds = %34
  store i32 0, ptr %11, align 4, !tbaa !8
  %41 = getelementptr inbounds [2 x %struct.ossl_param_st], ptr %13, i64 0, i64 0
  call void @llvm.lifetime.start.p0(i64 40, ptr %16) #8
  %42 = load ptr, ptr %9, align 8, !tbaa !61
  %43 = load i32, ptr %8, align 4, !tbaa !8
  %44 = icmp ne i32 %43, 0
  br i1 %44, label %45, label %47

45:                                               ; preds = %40
  %46 = load i32, ptr %8, align 4, !tbaa !8
  br label %48

47:                                               ; preds = %40
  br label %48

48:                                               ; preds = %47, %45
  %49 = phi i32 [ %46, %45 ], [ 9999, %47 ]
  %50 = sext i32 %49 to i64
  call void @OSSL_PARAM_construct_utf8_string(ptr dead_on_unwind writable sret(%struct.ossl_param_st) align 8 %16, ptr noundef @.str.3, ptr noundef %42, i64 noundef %50)
  call void @llvm.memcpy.p0.p0.i64(ptr align 16 %41, ptr align 8 %16, i64 40, i1 false), !tbaa.struct !67
  call void @llvm.lifetime.end.p0(i64 40, ptr %16) #8
  br label %57

51:                                               ; preds = %34
  %52 = getelementptr inbounds [2 x %struct.ossl_param_st], ptr %13, i64 0, i64 0
  call void @llvm.lifetime.start.p0(i64 40, ptr %17) #8
  %53 = load ptr, ptr %9, align 8, !tbaa !61
  %54 = load i32, ptr %8, align 4, !tbaa !8
  %55 = sext i32 %54 to i64
  call void @OSSL_PARAM_construct_octet_string(ptr dead_on_unwind writable sret(%struct.ossl_param_st) align 8 %17, ptr noundef @.str.4, ptr noundef %53, i64 noundef %55)
  call void @llvm.memcpy.p0.p0.i64(ptr align 16 %52, ptr align 8 %17, i64 40, i1 false), !tbaa.struct !67
  call void @llvm.lifetime.end.p0(i64 40, ptr %17) #8
  br label %57

56:                                               ; preds = %34
  br label %88

57:                                               ; preds = %51, %48, %36
  %58 = load i32, ptr %11, align 4, !tbaa !8
  %59 = icmp ne i32 %58, 0
  br i1 %59, label %60, label %64

60:                                               ; preds = %57
  %61 = load ptr, ptr %6, align 8, !tbaa !3
  %62 = getelementptr inbounds [2 x %struct.ossl_param_st], ptr %13, i64 0, i64 0
  %63 = call i32 @EVP_MD_CTX_set_params(ptr noundef %61, ptr noundef %62)
  store i32 %63, ptr %10, align 4, !tbaa !8
  br label %68

64:                                               ; preds = %57
  %65 = load ptr, ptr %6, align 8, !tbaa !3
  %66 = getelementptr inbounds [2 x %struct.ossl_param_st], ptr %13, i64 0, i64 0
  %67 = call i32 @EVP_MD_CTX_get_params(ptr noundef %65, ptr noundef %66)
  store i32 %67, ptr %10, align 4, !tbaa !8
  br label %68

68:                                               ; preds = %64, %60
  br label %88

69:                                               ; preds = %33
  %70 = load ptr, ptr %6, align 8, !tbaa !3
  %71 = getelementptr inbounds nuw %struct.evp_md_ctx_st, ptr %70, i32 0, i32 1
  %72 = load ptr, ptr %71, align 8, !tbaa !16
  %73 = getelementptr inbounds nuw %struct.evp_md_st, ptr %72, i32 0, i32 12
  %74 = load ptr, ptr %73, align 8, !tbaa !68
  %75 = icmp eq ptr %74, null
  br i1 %75, label %76, label %77

76:                                               ; preds = %69
  call void @ERR_new()
  call void @ERR_set_debug(ptr noundef @.str, i32 noundef 929, ptr noundef @__func__.EVP_MD_CTX_ctrl)
  call void (i32, i32, ptr, ...) @ERR_set_error(i32 noundef 6, i32 noundef 132, ptr noundef null)
  store i32 0, ptr %5, align 4
  store i32 1, ptr %14, align 4
  br label %94

77:                                               ; preds = %69
  %78 = load ptr, ptr %6, align 8, !tbaa !3
  %79 = getelementptr inbounds nuw %struct.evp_md_ctx_st, ptr %78, i32 0, i32 1
  %80 = load ptr, ptr %79, align 8, !tbaa !16
  %81 = getelementptr inbounds nuw %struct.evp_md_st, ptr %80, i32 0, i32 12
  %82 = load ptr, ptr %81, align 8, !tbaa !68
  %83 = load ptr, ptr %6, align 8, !tbaa !3
  %84 = load i32, ptr %7, align 4, !tbaa !8
  %85 = load i32, ptr %8, align 4, !tbaa !8
  %86 = load ptr, ptr %9, align 8, !tbaa !61
  %87 = call i32 %82(ptr noundef %83, i32 noundef %84, i32 noundef %85, ptr noundef %86)
  store i32 %87, ptr %10, align 4, !tbaa !8
  br label %88

88:                                               ; preds = %77, %68, %56
  %89 = load i32, ptr %10, align 4, !tbaa !8
  %90 = icmp sle i32 %89, 0
  br i1 %90, label %91, label %92

91:                                               ; preds = %88
  store i32 0, ptr %5, align 4
  store i32 1, ptr %14, align 4
  br label %94

92:                                               ; preds = %88
  %93 = load i32, ptr %10, align 4, !tbaa !8
  store i32 %93, ptr %5, align 4
  store i32 1, ptr %14, align 4
  br label %94

94:                                               ; preds = %92, %91, %76, %20
  call void @llvm.lifetime.end.p0(i64 80, ptr %13) #8
  call void @llvm.lifetime.end.p0(i64 8, ptr %12) #8
  call void @llvm.lifetime.end.p0(i64 4, ptr %11) #8
  call void @llvm.lifetime.end.p0(i64 4, ptr %10) #8
  %95 = load i32, ptr %5, align 4
  ret i32 %95
}