; Function Attrs: nounwind uwtable
define range(i32 0, -2147483648) i32 @EVP_MD_CTX_ctrl(ptr noundef %0, i32 noundef %1, i32 noundef %2, ptr noundef %3) local_unnamed_addr #0 {
  %5 = alloca i64, align 8
  %6 = alloca [2 x %struct.ossl_param_st], align 16
  call void @llvm.lifetime.start.p0(i64 8, ptr nonnull %5) #8
  call void @llvm.lifetime.start.p0(i64 80, ptr nonnull %6) #8
  call void @llvm.memset.p0.i64(ptr noundef nonnull align 16 dereferenceable(80) %6, i8 0, i64 80, i1 false)
  %7 = icmp eq ptr %0, null
  br i1 %7, label %8, label %9

8:                                                ; preds = %4
  tail call void @ERR_new() #8
  tail call void @ERR_set_debug(ptr noundef nonnull @.str, i32 noundef 894, ptr noundef nonnull @__func__.EVP_MD_CTX_ctrl) #8
  tail call void (i32, i32, ptr, ...) @ERR_set_error(i32 noundef 6, i32 noundef 786690, ptr noundef null) #8
  br label %78

9:                                                ; preds = %4
  %10 = getelementptr inbounds nuw i8, ptr %0, i64 8
  %11 = load ptr, ptr %10, align 8, !tbaa !12
  %.not = icmp eq ptr %11, null
  br i1 %.not, label %16, label %12

12:                                               ; preds = %9
  %13 = getelementptr inbounds nuw i8, ptr %11, i64 112
  %14 = load ptr, ptr %13, align 8, !tbaa !43
  %15 = icmp eq ptr %14, null
  br i1 %15, label %70, label %16

16:                                               ; preds = %12, %9
  switch i32 %1, label %EVP_MD_CTX_get_params.exit.thread [
    i32 3, label %17
    i32 2, label %19
    i32 29, label %45
  ]

17:                                               ; preds = %16
  %18 = sext i32 %2 to i64
  store i64 %18, ptr %5, align 8, !tbaa !50
  call void @OSSL_PARAM_construct_size_t(ptr dead_on_unwind nonnull writable sret(%struct.ossl_param_st) align 8 %6, ptr noundef nonnull @.str.2, ptr noundef nonnull %5) #8
  br label %.critedge

19:                                               ; preds = %16
  %.not26 = icmp eq i32 %2, 0
  %20 = select i1 %.not26, i32 9999, i32 %2
  %21 = sext i32 %20 to i64
  call void @OSSL_PARAM_construct_utf8_string(ptr dead_on_unwind nonnull writable sret(%struct.ossl_param_st) align 8 %6, ptr noundef nonnull @.str.3, ptr noundef %3, i64 noundef %21) #8
  %22 = getelementptr inbounds nuw i8, ptr %0, i64 40
  %23 = load ptr, ptr %22, align 8, !tbaa !26
  %.not.i = icmp eq ptr %23, null
  br i1 %.not.i, label %36, label %24

24:                                               ; preds = %19
  %25 = load i32, ptr %23, align 8, !tbaa !31
  switch i32 %25, label %36 [
    i32 256, label %26
    i32 128, label %26
  ]

26:                                               ; preds = %24, %24
  %27 = getelementptr inbounds nuw i8, ptr %23, i64 48
  %28 = load ptr, ptr %27, align 8, !tbaa !40
  %.not20.i = icmp eq ptr %28, null
  br i1 %.not20.i, label %36, label %29

29:                                               ; preds = %26
  %30 = getelementptr inbounds nuw i8, ptr %23, i64 40
  %31 = load ptr, ptr %30, align 8, !tbaa !40
  %32 = getelementptr inbounds nuw i8, ptr %31, i64 256
  %33 = load ptr, ptr %32, align 8, !tbaa !74
  %.not21.i = icmp eq ptr %33, null
  br i1 %.not21.i, label %36, label %34

34:                                               ; preds = %29
  %35 = call i32 %33(ptr noundef nonnull %28, ptr noundef nonnull %6) #8
  br label %EVP_MD_CTX_get_params.exit

36:                                               ; preds = %29, %26, %24, %19
  %37 = load ptr, ptr %10, align 8, !tbaa !12
  %.not22.i = icmp eq ptr %37, null
  br i1 %.not22.i, label %EVP_MD_CTX_get_params.exit.thread, label %38

38:                                               ; preds = %36
  %39 = getelementptr inbounds nuw i8, ptr %37, i64 216
  %40 = load ptr, ptr %39, align 8, !tbaa !75
  %.not23.i = icmp eq ptr %40, null
  br i1 %.not23.i, label %EVP_MD_CTX_get_params.exit.thread, label %41

41:                                               ; preds = %38
  %42 = getelementptr inbounds nuw i8, ptr %0, i64 56
  %43 = load ptr, ptr %42, align 8, !tbaa !3
  %44 = call i32 %40(ptr noundef %43, ptr noundef nonnull %6) #8
  br label %EVP_MD_CTX_get_params.exit

45:                                               ; preds = %16
  %46 = sext i32 %2 to i64
  call void @OSSL_PARAM_construct_octet_string(ptr dead_on_unwind nonnull writable sret(%struct.ossl_param_st) align 8 %6, ptr noundef nonnull @.str.4, ptr noundef %3, i64 noundef %46) #8
  br label %.critedge

.critedge:                                        ; preds = %17, %45
  %47 = getelementptr inbounds nuw i8, ptr %0, i64 40
  %48 = load ptr, ptr %47, align 8, !tbaa !26
  %.not.i28 = icmp eq ptr %48, null
  br i1 %.not.i28, label %61, label %49

49:                                               ; preds = %.critedge
  %50 = load i32, ptr %48, align 8, !tbaa !31
  switch i32 %50, label %61 [
    i32 256, label %51
    i32 128, label %51
  ]

51:                                               ; preds = %49, %49
  %52 = getelementptr inbounds nuw i8, ptr %48, i64 48
  %53 = load ptr, ptr %52, align 8, !tbaa !40
  %.not20.i29 = icmp eq ptr %53, null
  br i1 %.not20.i29, label %61, label %54

54:                                               ; preds = %51
  %55 = getelementptr inbounds nuw i8, ptr %48, i64 40
  %56 = load ptr, ptr %55, align 8, !tbaa !40
  %57 = getelementptr inbounds nuw i8, ptr %56, i64 272
  %58 = load ptr, ptr %57, align 8, !tbaa !57
  %.not21.i30 = icmp eq ptr %58, null
  br i1 %.not21.i30, label %61, label %59

59:                                               ; preds = %54
  %60 = call i32 %58(ptr noundef nonnull %53, ptr noundef nonnull %6) #8
  br label %EVP_MD_CTX_get_params.exit

61:                                               ; preds = %54, %51, %49, %.critedge
  %62 = load ptr, ptr %10, align 8, !tbaa !12
  %.not22.i32 = icmp eq ptr %62, null
  br i1 %.not22.i32, label %EVP_MD_CTX_get_params.exit.thread, label %63

63:                                               ; preds = %61
  %64 = getelementptr inbounds nuw i8, ptr %62, i64 208
  %65 = load ptr, ptr %64, align 8, !tbaa !60
  %.not23.i33 = icmp eq ptr %65, null
  br i1 %.not23.i33, label %EVP_MD_CTX_get_params.exit.thread, label %66

66:                                               ; preds = %63
  %67 = getelementptr inbounds nuw i8, ptr %0, i64 56
  %68 = load ptr, ptr %67, align 8, !tbaa !3
  %69 = call i32 %65(ptr noundef %68, ptr noundef nonnull %6) #8
  br label %EVP_MD_CTX_get_params.exit

70:                                               ; preds = %12
  %71 = getelementptr inbounds nuw i8, ptr %11, i64 80
  %72 = load ptr, ptr %71, align 8, !tbaa !61
  %73 = icmp eq ptr %72, null
  br i1 %73, label %74, label %75

74:                                               ; preds = %70
  tail call void @ERR_new() #8
  tail call void @ERR_set_debug(ptr noundef nonnull @.str, i32 noundef 929, ptr noundef nonnull @__func__.EVP_MD_CTX_ctrl) #8
  tail call void (i32, i32, ptr, ...) @ERR_set_error(i32 noundef 6, i32 noundef 132, ptr noundef null) #8
  br label %78

75:                                               ; preds = %70
  %76 = tail call i32 %72(ptr noundef nonnull %0, i32 noundef %1, i32 noundef %2, ptr noundef %3) #8
  br label %EVP_MD_CTX_get_params.exit

EVP_MD_CTX_get_params.exit:                       ; preds = %66, %59, %41, %34, %75
  %.021 = phi i32 [ %76, %75 ], [ %35, %34 ], [ %44, %41 ], [ %60, %59 ], [ %69, %66 ]
  %.021.fr = freeze i32 %.021
  %77 = icmp slt i32 %.021.fr, 1
  br i1 %77, label %EVP_MD_CTX_get_params.exit.thread, label %78

EVP_MD_CTX_get_params.exit.thread:                ; preds = %61, %63, %36, %38, %16, %EVP_MD_CTX_get_params.exit
  br label %78

78:                                               ; preds = %EVP_MD_CTX_get_params.exit.thread, %EVP_MD_CTX_get_params.exit, %74, %8
  %.022 = phi i32 [ 0, %8 ], [ 0, %74 ], [ 0, %EVP_MD_CTX_get_params.exit.thread ], [ %.021.fr, %EVP_MD_CTX_get_params.exit ]
  call void @llvm.lifetime.end.p0(i64 80, ptr nonnull %6) #8
  call void @llvm.lifetime.end.p0(i64 8, ptr nonnull %5) #8
  ret i32 %.022
}